target datalayout = "e-m:e-p270:32:32-p271:32:32-p272:64:64-i64:64-i128:128-f80:128-n8:16:32:64-S128"
target triple = "x86_64-pc-linux-gnu"

%struct._zend_array = type { %struct._zend_refcounted_h, %union.anon.0, i32, %union.anon.1, i32, i32, i32, i32, i64, ptr }
%struct._zend_refcounted_h = type { i32, %union.anon }
%union.anon = type { i32 }
%union.anon.0 = type { i32 }
%union.anon.1 = type { ptr }

@uninitialized_bucket = internal constant [2 x i32] [i32 -1, i32 -1], align 4
@.str = private unnamed_addr constant [64 x i8] c"Possible integer overflow in memory allocation (%u * %zu + %zu)\00", align 1

; Function Attrs: nounwind uwtable
define ptr @_zend_new_array_0() #0 {
  %1 = alloca ptr, align 8
  %2 = alloca i32, align 4
  %3 = alloca i32, align 4
  %4 = alloca i32, align 4
  %5 = alloca ptr, align 8
  %6 = alloca i32, align 4
  %7 = alloca ptr, align 8
  %8 = alloca i8, align 1
  %9 = alloca ptr, align 8
  %10 = call noalias ptr @_emalloc_56()
  store ptr %10, ptr %9, align 8
  %11 = load ptr, ptr %9, align 8
  store ptr %11, ptr %5, align 8
  store i32 8, ptr %6, align 4
  store ptr @zval_ptr_dtor, ptr %7, align 8
  store i8 0, ptr %8, align 1
  %12 = load ptr, ptr %5, align 8
  store ptr %12, ptr %1, align 8
  store i32 1, ptr %2, align 4
  %13 = load i32, ptr %2, align 4
  %14 = load ptr, ptr %1, align 8
  store i32 %13, ptr %14, align 4
  %15 = load i8, ptr %8, align 1
  %16 = trunc i8 %15 to i1
  %17 = select i1 %16, i32 144, i32 0
  %18 = or i32 7, %17
  %19 = load ptr, ptr %5, align 8
  %20 = getelementptr inbounds %struct._zend_refcounted_h, ptr %19, i32 0, i32 1
  store i32 %18, ptr %20, align 4
  %21 = load ptr, ptr %5, align 8
  %22 = getelementptr inbounds %struct._zend_array, ptr %21, i32 0, i32 1
  store i32 8, ptr %22, align 8
  %23 = load ptr, ptr %5, align 8
  %24 = getelementptr inbounds %struct._zend_array, ptr %23, i32 0, i32 2
  store i32 -2, ptr %24, align 4
  %25 = load ptr, ptr %5, align 8
  %26 = getelementptr inbounds %struct._zend_array, ptr %25, i32 0, i32 2
  %27 = load i32, ptr %26, align 4
  %28 = sub i32 0, %27
  %29 = zext i32 %28 to i64
  %30 = mul i64 %29, 4
  %31 = getelementptr inbounds i8, ptr @uninitialized_bucket, i64 %30
  %32 = load ptr, ptr %5, align 8
  %33 = getelementptr inbounds %struct._zend_array, ptr %32, i32 0, i32 3
  store ptr %31, ptr %33, align 8
  %34 = load ptr, ptr %5, align 8
  %35 = getelementptr inbounds %struct._zend_array, ptr %34, i32 0, i32 4
  store i32 0, ptr %35, align 8
  %36 = load ptr, ptr %5, align 8
  %37 = getelementptr inbounds %struct._zend_array, ptr %36, i32 0, i32 5
  store i32 0, ptr %37, align 4
  %38 = load ptr, ptr %5, align 8
  %39 = getelementptr inbounds %struct._zend_array, ptr %38, i32 0, i32 7
  store i32 0, ptr %39, align 4
  %40 = load ptr, ptr %5, align 8
  %41 = getelementptr inbounds %struct._zend_array, ptr %40, i32 0, i32 8
  store i64 -9223372036854775808, ptr %41, align 8
  %42 = load ptr, ptr %7, align 8
  %43 = load ptr, ptr %5, align 8
  %44 = getelementptr inbounds %struct._zend_array, ptr %43, i32 0, i32 9
  store ptr %42, ptr %44, align 8
  %45 = load i32, ptr %6, align 4
  store i32 %45, ptr %4, align 4
  %46 = load i32, ptr %4, align 4
  %47 = icmp ule i32 %46, 8
  br i1 %47, label %48, label %49

48:                                               ; preds = %0
  store i32 8, ptr %3, align 4
  br label %60

49:                                               ; preds = %0
  %50 = load i32, ptr %4, align 4
  %51 = icmp ugt i32 %50, 1073741824
  br i1 %51, label %52, label %54

52:                                               ; preds = %49
  %53 = load i32, ptr %4, align 4
  call void (i32, ptr, ...) @zend_error_noreturn(i32 noundef 1, ptr noundef @.str, i32 noundef %53, i64 noundef 32, i64 noundef 32) #16
  unreachable

54:                                               ; preds = %49
  %55 = load i32, ptr %4, align 4
  %56 = sub i32 %55, 1
  %57 = call i32 @llvm.ctlz.i32(i32 %56, i1 true)
  %58 = xor i32 %57, 31
  %59 = shl i32 2, %58
  store i32 %59, ptr %3, align 4
  br label %60

60:                                               ; preds = %54, %48
  %61 = load i32, ptr %3, align 4
  %62 = load ptr, ptr %5, align 8
  %63 = getelementptr inbounds %struct._zend_array, ptr %62, i32 0, i32 6
  store i32 %61, ptr %63, align 8
  %64 = load ptr, ptr %9, align 8
  ret ptr %64
}