; Function Attrs: nounwind uwtable
define noalias noundef ptr @_zend_new_array_0() local_unnamed_addr #0 {
  %1 = tail call noalias ptr @_emalloc_56() #27
  store <4 x i32> <i32 1, i32 7, i32 8, i32 -2>, ptr %1, align 4
  %2 = getelementptr inbounds i8, ptr %1, i64 16
  store ptr getelementptr inbounds ([2 x i32], ptr @uninitialized_bucket, i64 1, i64 0), ptr %2, align 8
  %3 = getelementptr inbounds i8, ptr %1, i64 24
  store i32 0, ptr %3, align 8
  %4 = getelementptr inbounds i8, ptr %1, i64 28
  store i32 0, ptr %4, align 4
  %5 = getelementptr inbounds i8, ptr %1, i64 36
  store i32 0, ptr %5, align 4
  %6 = getelementptr inbounds i8, ptr %1, i64 40
  store i64 -9223372036854775808, ptr %6, align 8
  %7 = getelementptr inbounds i8, ptr %1, i64 48
  store ptr @zval_ptr_dtor, ptr %7, align 8
  %8 = getelementptr inbounds i8, ptr %1, i64 32
  store i32 8, ptr %8, align 8
  ret ptr %1
}